target datalayout = "e-m:e-p270:32:32-p271:32:32-p272:64:64-i64:64-i128:128-f80:128-n8:16:32:64-S128"
target triple = "x86_64-pc-linux-gnu"

%struct.ForEachState = type { ptr, i32 }
%union.ListCell = type { ptr }
%struct.List = type { i32, i32, i32, ptr, [0 x %union.ListCell] }
%struct.RangeTblRef = type { i32, i32 }
%struct.FromExpr = type { i32, ptr, ptr }
%struct.Node = type { i32 }
%struct.JoinExpr = type { i32, i32, i8, ptr, ptr, ptr, ptr, ptr, ptr, i32 }

@.str.2 = private unnamed_addr constant [15 x i8] c"prepjointree.c\00", align 1
@.str.5 = private unnamed_addr constant [27 x i8] c"unrecognized node type: %d\00", align 1
@__func__.find_jointree_node_for_rel = private unnamed_addr constant [27 x i8] c"find_jointree_node_for_rel\00", align 1

; Function Attrs: nounwind uwtable
define internal ptr @find_jointree_node_for_rel(ptr noundef %0, i32 noundef %1) #0 {
  %3 = alloca ptr, align 8
  %4 = alloca ptr, align 8
  %5 = alloca i32, align 4
  %6 = alloca i32, align 4
  %7 = alloca i32, align 4
  %8 = alloca ptr, align 8
  %9 = alloca ptr, align 8
  %10 = alloca %struct.ForEachState, align 8
  %11 = alloca ptr, align 8
  store ptr %0, ptr %4, align 8
  store i32 %1, ptr %5, align 4
  %12 = load ptr, ptr %4, align 8
  %13 = icmp eq ptr %12, null
  br i1 %13, label %14, label %15

14:                                               ; preds = %2
  store ptr null, ptr %3, align 8
  br label %146

15:                                               ; preds = %2
  %16 = load ptr, ptr %4, align 8
  %17 = getelementptr inbounds nuw %struct.Node, ptr %16, i32 0, i32 0
  %18 = load i32, ptr %17, align 4
  %19 = icmp eq i32 %18, 63
  br i1 %19, label %20, label %33

20:                                               ; preds = %15
  call void @llvm.lifetime.start.p0(i64 4, ptr %6) #8
  %21 = load ptr, ptr %4, align 8
  %22 = getelementptr inbounds nuw %struct.RangeTblRef, ptr %21, i32 0, i32 1
  %23 = load i32, ptr %22, align 4
  store i32 %23, ptr %6, align 4
  %24 = load i32, ptr %5, align 4
  %25 = load i32, ptr %6, align 4
  %26 = icmp eq i32 %24, %25
  br i1 %26, label %27, label %29

27:                                               ; preds = %20
  %28 = load ptr, ptr %4, align 8
  store ptr %28, ptr %3, align 8
  store i32 1, ptr %7, align 4
  br label %30

29:                                               ; preds = %20
  store i32 0, ptr %7, align 4
  br label %30

30:                                               ; preds = %29, %27
  call void @llvm.lifetime.end.p0(i64 4, ptr %6) #8
  %31 = load i32, ptr %7, align 4
  switch i32 %31, label %148 [
    i32 0, label %32
    i32 1, label %146
  ]

32:                                               ; preds = %30
  br label %145

33:                                               ; preds = %15
  %34 = load ptr, ptr %4, align 8
  %35 = getelementptr inbounds nuw %struct.Node, ptr %34, i32 0, i32 0
  %36 = load i32, ptr %35, align 4
  %37 = icmp eq i32 %36, 65
  br i1 %37, label %38, label %92

38:                                               ; preds = %33
  call void @llvm.lifetime.start.p0(i64 8, ptr %8) #8
  %39 = load ptr, ptr %4, align 8
  store ptr %39, ptr %8, align 8
  call void @llvm.lifetime.start.p0(i64 8, ptr %9) #8
  call void @llvm.lifetime.start.p0(i64 16, ptr %10) #8
  %40 = getelementptr inbounds nuw %struct.ForEachState, ptr %10, i32 0, i32 0
  %41 = load ptr, ptr %8, align 8
  %42 = getelementptr inbounds nuw %struct.FromExpr, ptr %41, i32 0, i32 1
  %43 = load ptr, ptr %42, align 8
  store ptr %43, ptr %40, align 8
  %44 = getelementptr inbounds nuw %struct.ForEachState, ptr %10, i32 0, i32 1
  store i32 0, ptr %44, align 8
  %45 = getelementptr i8, ptr %10, i64 12
  call void @llvm.memset.p0.i64(ptr align 4 %45, i8 0, i64 4, i1 false)
  br label %46

46:                                               ; preds = %82, %38
  %47 = getelementptr inbounds nuw %struct.ForEachState, ptr %10, i32 0, i32 0
  %48 = load ptr, ptr %47, align 8
  %49 = icmp ne ptr %48, null
  br i1 %49, label %50, label %67

50:                                               ; preds = %46
  %51 = getelementptr inbounds nuw %struct.ForEachState, ptr %10, i32 0, i32 1
  %52 = load i32, ptr %51, align 8
  %53 = getelementptr inbounds nuw %struct.ForEachState, ptr %10, i32 0, i32 0
  %54 = load ptr, ptr %53, align 8
  %55 = getelementptr inbounds nuw %struct.List, ptr %54, i32 0, i32 1
  %56 = load i32, ptr %55, align 4
  %57 = icmp slt i32 %52, %56
  br i1 %57, label %58, label %67

58:                                               ; preds = %50
  %59 = getelementptr inbounds nuw %struct.ForEachState, ptr %10, i32 0, i32 0
  %60 = load ptr, ptr %59, align 8
  %61 = getelementptr inbounds nuw %struct.List, ptr %60, i32 0, i32 3
  %62 = load ptr, ptr %61, align 8
  %63 = getelementptr inbounds nuw %struct.ForEachState, ptr %10, i32 0, i32 1
  %64 = load i32, ptr %63, align 8
  %65 = sext i32 %64 to i64
  %66 = getelementptr inbounds %union.ListCell, ptr %62, i64 %65
  store ptr %66, ptr %9, align 8
  br label %68

67:                                               ; preds = %50, %46
  store ptr null, ptr %9, align 8
  br label %68

68:                                               ; preds = %67, %58
  %69 = phi i32 [ 1, %58 ], [ 0, %67 ]
  %70 = icmp ne i32 %69, 0
  br i1 %70, label %72, label %71

71:                                               ; preds = %68
  store i32 2, ptr %7, align 4
  br label %86

72:                                               ; preds = %68
  %73 = load ptr, ptr %9, align 8
  %74 = load ptr, ptr %73, align 8
  %75 = load i32, ptr %5, align 4
  %76 = call ptr @find_jointree_node_for_rel(ptr noundef %74, i32 noundef %75)
  store ptr %76, ptr %4, align 8
  %77 = load ptr, ptr %4, align 8
  %78 = icmp ne ptr %77, null
  br i1 %78, label %79, label %81

79:                                               ; preds = %72
  %80 = load ptr, ptr %4, align 8
  store ptr %80, ptr %3, align 8
  store i32 1, ptr %7, align 4
  br label %86

81:                                               ; preds = %72
  br label %82

82:                                               ; preds = %81
  %83 = getelementptr inbounds nuw %struct.ForEachState, ptr %10, i32 0, i32 1
  %84 = load i32, ptr %83, align 8
  %85 = add i32 %84, 1
  store i32 %85, ptr %83, align 8
  br label %46, !llvm.loop !22

86:                                               ; preds = %79, %71
  call void @llvm.lifetime.end.p0(i64 16, ptr %10) #8
  %87 = load i32, ptr %7, align 4
  switch i32 %87, label %89 [
    i32 2, label %88
  ]

88:                                               ; preds = %86
  store i32 0, ptr %7, align 4
  br label %89

89:                                               ; preds = %88, %86
  call void @llvm.lifetime.end.p0(i64 8, ptr %9) #8
  call void @llvm.lifetime.end.p0(i64 8, ptr %8) #8
  %90 = load i32, ptr %7, align 4
  switch i32 %90, label %148 [
    i32 0, label %91
    i32 1, label %146
  ]

91:                                               ; preds = %89
  br label %144

92:                                               ; preds = %33
  %93 = load ptr, ptr %4, align 8
  %94 = getelementptr inbounds nuw %struct.Node, ptr %93, i32 0, i32 0
  %95 = load i32, ptr %94, align 4
  %96 = icmp eq i32 %95, 64
  br i1 %96, label %97, label %130

97:                                               ; preds = %92
  call void @llvm.lifetime.start.p0(i64 8, ptr %11) #8
  %98 = load ptr, ptr %4, align 8
  store ptr %98, ptr %11, align 8
  %99 = load i32, ptr %5, align 4
  %100 = load ptr, ptr %11, align 8
  %101 = getelementptr inbounds nuw %struct.JoinExpr, ptr %100, i32 0, i32 9
  %102 = load i32, ptr %101, align 8
  %103 = icmp eq i32 %99, %102
  br i1 %103, label %104, label %106

104:                                              ; preds = %97
  %105 = load ptr, ptr %4, align 8
  store ptr %105, ptr %3, align 8
  store i32 1, ptr %7, align 4
  br label %127

106:                                              ; preds = %97
  %107 = load ptr, ptr %11, align 8
  %108 = getelementptr inbounds nuw %struct.JoinExpr, ptr %107, i32 0, i32 3
  %109 = load ptr, ptr %108, align 8
  %110 = load i32, ptr %5, align 4
  %111 = call ptr @find_jointree_node_for_rel(ptr noundef %109, i32 noundef %110)
  store ptr %111, ptr %4, align 8
  %112 = load ptr, ptr %4, align 8
  %113 = icmp ne ptr %112, null
  br i1 %113, label %114, label %116

114:                                              ; preds = %106
  %115 = load ptr, ptr %4, align 8
  store ptr %115, ptr %3, align 8
  store i32 1, ptr %7, align 4
  br label %127

116:                                              ; preds = %106
  %117 = load ptr, ptr %11, align 8
  %118 = getelementptr inbounds nuw %struct.JoinExpr, ptr %117, i32 0, i32 4
  %119 = load ptr, ptr %118, align 8
  %120 = load i32, ptr %5, align 4
  %121 = call ptr @find_jointree_node_for_rel(ptr noundef %119, i32 noundef %120)
  store ptr %121, ptr %4, align 8
  %122 = load ptr, ptr %4, align 8
  %123 = icmp ne ptr %122, null
  br i1 %123, label %124, label %126

124:                                              ; preds = %116
  %125 = load ptr, ptr %4, align 8
  store ptr %125, ptr %3, align 8
  store i32 1, ptr %7, align 4
  br label %127

126:                                              ; preds = %116
  store i32 0, ptr %7, align 4
  br label %127

127:                                              ; preds = %126, %124, %114, %104
  call void @llvm.lifetime.end.p0(i64 8, ptr %11) #8
  %128 = load i32, ptr %7, align 4
  switch i32 %128, label %148 [
    i32 0, label %129
    i32 1, label %146
  ]

129:                                              ; preds = %127
  br label %143

130:                                              ; preds = %92
  br label %131

131:                                              ; preds = %130
  br i1 true, label %132, label %134

132:                                              ; preds = %131
  %133 = call zeroext i1 @errstart_cold(i32 noundef 21, ptr noundef null) #9
  br i1 %133, label %136, label %141

134:                                              ; preds = %131
  %135 = call zeroext i1 @errstart(i32 noundef 21, ptr noundef null)
  br i1 %135, label %136, label %141

136:                                              ; preds = %134, %132
  %137 = load ptr, ptr %4, align 8
  %138 = getelementptr inbounds nuw %struct.Node, ptr %137, i32 0, i32 0
  %139 = load i32, ptr %138, align 4
  %140 = call i32 (ptr, ...) @errmsg_internal(ptr noundef @.str.5, i32 noundef %139)
  call void @errfinish(ptr noundef @.str.2, i32 noundef 4245, ptr noundef @__func__.find_jointree_node_for_rel)
  br label %141

141:                                              ; preds = %136, %134, %132
  unreachable

142:                                              ; No predecessors!
  br label %143

143:                                              ; preds = %142, %129
  br label %144

144:                                              ; preds = %143, %91
  br label %145

145:                                              ; preds = %144, %32
  store ptr null, ptr %3, align 8
  br label %146

146:                                              ; preds = %145, %127, %89, %30, %14
  %147 = load ptr, ptr %3, align 8
  ret ptr %147

148:                                              ; preds = %127, %89, %30
  unreachable
}