; Function Attrs: nounwind uwtable
define internal fastcc ptr @find_jointree_node_for_rel(ptr noundef readonly captures(address_is_null, ret: address, provenance) %0, i32 noundef %1) unnamed_addr #0 {
  %3 = icmp eq ptr %0, null
  br i1 %3, label %.thread62, label %4

4:                                                ; preds = %2
  %5 = load i32, ptr %0, align 4
  switch i32 %5, label %36 [
    i32 63, label %6
    i32 65, label %9
    i32 64, label %24
  ]

6:                                                ; preds = %4
  %7 = getelementptr inbounds nuw i8, ptr %0, i64 4
  %8 = load i32, ptr %7, align 4
  %.not66 = icmp eq i32 %1, %8
  br i1 %.not66, label %.thread62, label %.thread57

9:                                                ; preds = %4
  %10 = getelementptr inbounds nuw i8, ptr %0, i64 8
  %11 = load ptr, ptr %10, align 8
  %.not47 = icmp eq ptr %11, null
  br i1 %.not47, label %.thread57, label %.lr.ph

.lr.ph:                                           ; preds = %9
  %12 = getelementptr inbounds nuw i8, ptr %11, i64 4
  %13 = getelementptr inbounds nuw i8, ptr %11, i64 16
  %14 = load i32, ptr %12, align 4
  %15 = icmp sgt i32 %14, 0
  br i1 %15, label %.lr.ph70, label %.thread57

16:                                               ; preds = %.lr.ph70
  %indvars.iv.next = add nuw nsw i64 %indvars.iv, 1
  %17 = load i32, ptr %12, align 4
  %18 = sext i32 %17 to i64
  %19 = icmp slt i64 %indvars.iv.next, %18
  br i1 %19, label %.lr.ph70, label %.thread57

.lr.ph70:                                         ; preds = %.lr.ph, %16
  %indvars.iv = phi i64 [ %indvars.iv.next, %16 ], [ 0, %.lr.ph ]
  %20 = load ptr, ptr %13, align 8
  %21 = getelementptr inbounds nuw %union.ListCell, ptr %20, i64 %indvars.iv
  %22 = load ptr, ptr %21, align 8
  %23 = tail call fastcc ptr @find_jointree_node_for_rel(ptr noundef %22, i32 noundef %1)
  %.not49 = icmp eq ptr %23, null
  br i1 %.not49, label %16, label %.thread62

24:                                               ; preds = %4
  %25 = getelementptr inbounds nuw i8, ptr %0, i64 64
  %26 = load i32, ptr %25, align 8
  %27 = icmp eq i32 %1, %26
  br i1 %27, label %.thread62, label %28

28:                                               ; preds = %24
  %29 = getelementptr inbounds nuw i8, ptr %0, i64 16
  %30 = load ptr, ptr %29, align 8
  %31 = tail call fastcc ptr @find_jointree_node_for_rel(ptr noundef %30, i32 noundef %1)
  %.not = icmp eq ptr %31, null
  br i1 %.not, label %32, label %.thread62

32:                                               ; preds = %28
  %33 = getelementptr inbounds nuw i8, ptr %0, i64 24
  %34 = load ptr, ptr %33, align 8
  %35 = tail call fastcc ptr @find_jointree_node_for_rel(ptr noundef %34, i32 noundef %1)
  %.not46 = icmp eq ptr %35, null
  br i1 %.not46, label %.thread57, label %.thread62

36:                                               ; preds = %4
  %37 = tail call zeroext i1 @errstart_cold(i32 noundef 21, ptr noundef null) #8
  tail call void @llvm.assume(i1 %37)
  %38 = load i32, ptr %0, align 4
  %39 = tail call i32 (ptr, ...) @errmsg_internal(ptr noundef nonnull @.str.5, i32 noundef %38) #7
  tail call void @errfinish(ptr noundef nonnull @.str.2, i32 noundef 4245, ptr noundef nonnull @__func__.find_jointree_node_for_rel) #7
  unreachable

.thread57:                                        ; preds = %16, %9, %.lr.ph, %32, %6
  br label %.thread62

.thread62:                                        ; preds = %.lr.ph70, %32, %28, %24, %6, %2, %.thread57
  %.0 = phi ptr [ %0, %6 ], [ null, %.thread57 ], [ null, %2 ], [ %35, %32 ], [ %31, %28 ], [ %0, %24 ], [ %23, %.lr.ph70 ]
  ret ptr %.0
}